target datalayout = "e-m:e-p270:32:32-p271:32:32-p272:64:64-i64:64-i128:128-f80:128-n8:16:32:64-S128"
target triple = "x86_64-pc-linux-gnu"

%struct.OnigEncodingTypeST = type { ptr, ptr, i32, i32, ptr, ptr, ptr, ptr, ptr, ptr, ptr, ptr, ptr, ptr, ptr, ptr, ptr, ptr, ptr, i32, i32, i32 }

; Function Attrs: nounwind uwtable
define internal i32 @is_posix_bracket_start(ptr noundef %0, ptr noundef %1, ptr noundef %2) #0 {
  %4 = alloca i32, align 4
  %5 = alloca ptr, align 8
  %6 = alloca ptr, align 8
  %7 = alloca ptr, align 8
  %8 = alloca i32, align 4
  %9 = alloca i32, align 4
  %10 = alloca ptr, align 8
  %11 = alloca i32, align 4
  store ptr %0, ptr %5, align 8, !tbaa !4
  store ptr %1, ptr %6, align 8, !tbaa !4
  store ptr %2, ptr %7, align 8, !tbaa !32
  call void @llvm.lifetime.start.p0(i64 4, ptr %8) #8
  call void @llvm.lifetime.start.p0(i64 4, ptr %9) #8
  call void @llvm.lifetime.start.p0(i64 8, ptr %10) #8
  store i32 0, ptr %8, align 4, !tbaa !10
  %12 = load ptr, ptr %5, align 8, !tbaa !4
  store ptr %12, ptr %10, align 8, !tbaa !4
  br label %13

13:                                               ; preds = %71, %3
  %14 = load ptr, ptr %10, align 8, !tbaa !4
  %15 = load ptr, ptr %6, align 8, !tbaa !4
  %16 = icmp ult ptr %14, %15
  br i1 %16, label %17, label %74

17:                                               ; preds = %13
  %18 = load ptr, ptr %7, align 8, !tbaa !32
  %19 = getelementptr inbounds nuw %struct.OnigEncodingTypeST, ptr %18, i32 0, i32 5
  %20 = load ptr, ptr %19, align 8, !tbaa !92
  %21 = load ptr, ptr %10, align 8, !tbaa !4
  %22 = load ptr, ptr %6, align 8, !tbaa !4
  %23 = call i32 %20(ptr noundef %21, ptr noundef %22)
  store i32 %23, ptr %9, align 4, !tbaa !10
  %24 = load ptr, ptr %7, align 8, !tbaa !32
  %25 = getelementptr inbounds nuw %struct.OnigEncodingTypeST, ptr %24, i32 0, i32 0
  %26 = load ptr, ptr %25, align 8, !tbaa !94
  %27 = load ptr, ptr %10, align 8, !tbaa !4
  %28 = call i32 %26(ptr noundef %27)
  %29 = load ptr, ptr %10, align 8, !tbaa !4
  %30 = sext i32 %28 to i64
  %31 = getelementptr inbounds i8, ptr %29, i64 %30
  store ptr %31, ptr %10, align 8, !tbaa !4
  %32 = load i32, ptr %9, align 4, !tbaa !10
  %33 = icmp eq i32 %32, 58
  br i1 %33, label %34, label %54

34:                                               ; preds = %17
  %35 = load ptr, ptr %10, align 8, !tbaa !4
  %36 = load ptr, ptr %6, align 8, !tbaa !4
  %37 = icmp ult ptr %35, %36
  br i1 %37, label %38, label %53

38:                                               ; preds = %34
  %39 = load ptr, ptr %7, align 8, !tbaa !32
  %40 = getelementptr inbounds nuw %struct.OnigEncodingTypeST, ptr %39, i32 0, i32 5
  %41 = load ptr, ptr %40, align 8, !tbaa !92
  %42 = load ptr, ptr %10, align 8, !tbaa !4
  %43 = load ptr, ptr %6, align 8, !tbaa !4
  %44 = call i32 %41(ptr noundef %42, ptr noundef %43)
  store i32 %44, ptr %9, align 4, !tbaa !10
  %45 = load i32, ptr %9, align 4, !tbaa !10
  %46 = icmp eq i32 %45, 93
  br i1 %46, label %47, label %52

47:                                               ; preds = %38
  %48 = load i32, ptr %8, align 4, !tbaa !10
  %49 = icmp eq i32 %48, 0
  br i1 %49, label %50, label %51

50:                                               ; preds = %47
  store i32 0, ptr %4, align 4
  store i32 1, ptr %11, align 4
  br label %75

51:                                               ; preds = %47
  store i32 1, ptr %4, align 4
  store i32 1, ptr %11, align 4
  br label %75

52:                                               ; preds = %38
  br label %53

53:                                               ; preds = %52, %34
  store i32 0, ptr %4, align 4
  store i32 1, ptr %11, align 4
  br label %75

54:                                               ; preds = %17
  %55 = load i32, ptr %9, align 4, !tbaa !10
  %56 = icmp eq i32 %55, 94
  br i1 %56, label %57, label %61

57:                                               ; preds = %54
  %58 = load i32, ptr %8, align 4, !tbaa !10
  %59 = icmp eq i32 %58, 0
  br i1 %59, label %60, label %61

60:                                               ; preds = %57
  br label %70

61:                                               ; preds = %57, %54
  %62 = load ptr, ptr %7, align 8, !tbaa !32
  %63 = getelementptr inbounds nuw %struct.OnigEncodingTypeST, ptr %62, i32 0, i32 12
  %64 = load ptr, ptr %63, align 8, !tbaa !198
  %65 = load i32, ptr %9, align 4, !tbaa !10
  %66 = call i32 %64(i32 noundef %65, i32 noundef 1)
  %67 = icmp ne i32 %66, 0
  br i1 %67, label %69, label %68

68:                                               ; preds = %61
  br label %74

69:                                               ; preds = %61
  br label %70

70:                                               ; preds = %69, %60
  br label %71

71:                                               ; preds = %70
  %72 = load i32, ptr %8, align 4, !tbaa !10
  %73 = add nsw i32 %72, 1
  store i32 %73, ptr %8, align 4, !tbaa !10
  br label %13, !llvm.loop !314

74:                                               ; preds = %68, %13
  store i32 0, ptr %4, align 4
  store i32 1, ptr %11, align 4
  br label %75

75:                                               ; preds = %74, %53, %51, %50
  call void @llvm.lifetime.end.p0(i64 8, ptr %10) #8
  call void @llvm.lifetime.end.p0(i64 4, ptr %9) #8
  call void @llvm.lifetime.end.p0(i64 4, ptr %8) #8
  %76 = load i32, ptr %4, align 4
  ret i32 %76
}