; Function Attrs: nounwind uwtable
define internal fastcc range(i32 0, 2) i32 @is_posix_bracket_start(ptr noundef %0, ptr noundef %1, ptr noundef readonly captures(none) %2) unnamed_addr #2 {
  %4 = icmp ult ptr %0, %1
  br i1 %4, label %.lr.ph, label %.loopexit

.lr.ph:                                           ; preds = %3
  %5 = getelementptr inbounds nuw i8, ptr %2, i64 32
  %6 = getelementptr inbounds nuw i8, ptr %2, i64 88
  %7 = load ptr, ptr %5, align 8, !tbaa !80
  %8 = tail call i32 %7(ptr noundef %0, ptr noundef nonnull %1) #24
  %9 = load ptr, ptr %2, align 8, !tbaa !82
  %10 = tail call i32 %9(ptr noundef %0) #24
  %11 = sext i32 %10 to i64
  %12 = getelementptr inbounds i8, ptr %0, i64 %11
  %13 = icmp ne i32 %8, 58
  br i1 %13, label %.lr.ph42, label %._crit_edge

._crit_edge:                                      ; preds = %.backedge, %.lr.ph
  %.lcssa = phi ptr [ %12, %.lr.ph ], [ %34, %.backedge ]
  %14 = icmp ult ptr %.lcssa, %1
  br i1 %14, label %15, label %.loopexit

15:                                               ; preds = %._crit_edge
  %16 = load ptr, ptr %5, align 8, !tbaa !80
  %17 = tail call i32 %16(ptr noundef %.lcssa, ptr noundef nonnull %1) #24
  %18 = icmp eq i32 %17, 93
  %narrow = and i1 %18, %13
  %spec.select = zext i1 %narrow to i32
  br label %.loopexit

.lr.ph42:                                         ; preds = %.lr.ph, %.backedge
  %19 = phi ptr [ %34, %.backedge ], [ %12, %.lr.ph ]
  %20 = phi i32 [ %30, %.backedge ], [ %8, %.lr.ph ]
  %.0233041 = phi i32 [ %.02330.be, %.backedge ], [ 0, %.lr.ph ]
  %21 = icmp eq i32 %20, 94
  %22 = icmp eq i32 %.0233041, 0
  %or.cond = select i1 %21, i1 %22, i1 false
  br i1 %or.cond, label %28, label %23

23:                                               ; preds = %.lr.ph42
  %24 = load ptr, ptr %6, align 8, !tbaa !170
  %25 = tail call i32 %24(i32 noundef %20, i32 noundef 1) #24
  %.not = icmp ne i32 %25, 0
  %26 = add nuw nsw i32 %.0233041, 1
  %27 = icmp ult ptr %19, %1
  %or.cond34 = select i1 %.not, i1 %27, i1 false
  br i1 %or.cond34, label %.backedge, label %.loopexit

28:                                               ; preds = %.lr.ph42
  %.old33 = icmp ult ptr %19, %1
  br i1 %.old33, label %.backedge, label %.loopexit

.backedge:                                        ; preds = %28, %23
  %.02330.be = phi i32 [ 1, %28 ], [ %26, %23 ]
  %29 = load ptr, ptr %5, align 8, !tbaa !80
  %30 = tail call i32 %29(ptr noundef %19, ptr noundef nonnull %1) #24
  %31 = load ptr, ptr %2, align 8, !tbaa !82
  %32 = tail call i32 %31(ptr noundef %19) #24
  %33 = sext i32 %32 to i64
  %34 = getelementptr inbounds i8, ptr %19, i64 %33
  %35 = icmp eq i32 %30, 58
  br i1 %35, label %._crit_edge, label %.lr.ph42, !llvm.loop !287

.loopexit:                                        ; preds = %23, %28, %15, %3, %._crit_edge
  %.024 = phi i32 [ 0, %._crit_edge ], [ 0, %3 ], [ %spec.select, %15 ], [ 0, %28 ], [ 0, %23 ]
  ret i32 %.024
}